target datalayout = "e-m:e-p270:32:32-p271:32:32-p272:64:64-i64:64-i128:128-f80:128-n8:16:32:64-S128"
target triple = "x86_64-pc-linux-gnu"

%struct._packet_info = type { ptr, ptr, i32, i32, %struct.nstime_t, %struct.nstime_t, %struct.nstime_t, i8, ptr, ptr, ptr, ptr, %struct._address, %struct._address, %struct._address, %struct._address, %struct._address, %struct._address, i32, ptr, i8, [3 x i8], %struct.anon, i32, i32, i32, i32, ptr, i8, ptr, ptr, i16, i16, i32, i32, i16, i32, i32, ptr, ptr, ptr, i8, i8, i16, i16, i16, i32, i16, i16, ptr, ptr, ptr, ptr, ptr, i32, i32 }
%struct.nstime_t = type { i64, i32 }
%struct._address = type { i32, i32, ptr, ptr }
%struct.anon = type { i8, [3 x i8] }

@ett_resp = internal global i32 0, align 4
@.str.26 = private unnamed_addr constant [5 x i8] c"RESP\00", align 1
@proto_resp = internal global i32 0, align 4
@.str.32 = private unnamed_addr constant [10 x i8] c"Response:\00", align 1
@.str.33 = private unnamed_addr constant [9 x i8] c"Request:\00", align 1
@.str.34 = private unnamed_addr constant [16 x i8] c" [continuation]\00", align 1

; Function Attrs: null_pointer_is_valid sspstrong uwtable
define internal i32 @dissect_resp(ptr noundef %0, ptr noundef %1, ptr noundef %2, ptr noundef %3) #0 {
  %5 = alloca i32, align 4
  %6 = alloca ptr, align 8
  %7 = alloca ptr, align 8
  %8 = alloca ptr, align 8
  %9 = alloca ptr, align 8
  %10 = alloca i32, align 4
  %11 = alloca ptr, align 8
  %12 = alloca ptr, align 8
  %13 = alloca i32, align 4
  %14 = alloca i32, align 4
  store ptr %0, ptr %6, align 8
  store ptr %1, ptr %7, align 8
  store ptr %2, ptr %8, align 8
  store ptr %3, ptr %9, align 8
  call void @llvm.lifetime.start.p0(i64 4, ptr %10) #3
  store i32 0, ptr %10, align 4
  call void @llvm.lifetime.start.p0(i64 8, ptr %11) #3
  call void @llvm.lifetime.start.p0(i64 8, ptr %12) #3
  %15 = load ptr, ptr %7, align 8
  %16 = getelementptr inbounds nuw %struct._packet_info, ptr %15, i32 0, i32 1
  %17 = load ptr, ptr %16, align 8
  call void @col_set_str(ptr noundef %17, i32 noundef 35, ptr noundef @.str.26)
  %18 = load ptr, ptr %7, align 8
  %19 = getelementptr inbounds nuw %struct._packet_info, ptr %18, i32 0, i32 1
  %20 = load ptr, ptr %19, align 8
  call void @col_clear(ptr noundef %20, i32 noundef 25)
  %21 = load ptr, ptr %7, align 8
  %22 = getelementptr inbounds nuw %struct._packet_info, ptr %21, i32 0, i32 1
  %23 = load ptr, ptr %22, align 8
  %24 = load ptr, ptr %7, align 8
  %25 = getelementptr inbounds nuw %struct._packet_info, ptr %24, i32 0, i32 26
  %26 = load i32, ptr %25, align 4
  %27 = load ptr, ptr %7, align 8
  %28 = getelementptr inbounds nuw %struct._packet_info, ptr %27, i32 0, i32 24
  %29 = load i32, ptr %28, align 4
  %30 = icmp eq i32 %26, %29
  %31 = select i1 %30, ptr @.str.32, ptr @.str.33
  call void @col_append_str(ptr noundef %23, i32 noundef 25, ptr noundef %31)
  %32 = load ptr, ptr %8, align 8
  %33 = load i32, ptr @proto_resp, align 4
  %34 = load ptr, ptr %6, align 8
  %35 = call ptr @proto_tree_add_item(ptr noundef %32, i32 noundef %33, ptr noundef %34, i32 noundef 0, i32 noundef -1, i32 noundef 0)
  store ptr %35, ptr %11, align 8
  %36 = load ptr, ptr %11, align 8
  %37 = load i32, ptr @ett_resp, align 4
  %38 = call ptr @proto_item_add_subtree(ptr noundef %36, i32 noundef %37)
  store ptr %38, ptr %12, align 8
  call void @llvm.lifetime.start.p0(i64 4, ptr %13) #3
  %39 = load ptr, ptr %6, align 8
  %40 = load ptr, ptr %7, align 8
  %41 = load ptr, ptr %12, align 8
  %42 = load i32, ptr %10, align 4
  %43 = call i32 @dissect_resp_loop(ptr noundef %39, ptr noundef %40, ptr noundef %41, i32 noundef %42, i32 noundef 0, i64 noundef -1)
  store i32 %43, ptr %13, align 4
  %44 = load i32, ptr %13, align 4
  %45 = icmp eq i32 %44, -1
  br i1 %45, label %46, label %52

46:                                               ; preds = %4
  %47 = load ptr, ptr %7, align 8
  %48 = getelementptr inbounds nuw %struct._packet_info, ptr %47, i32 0, i32 1
  %49 = load ptr, ptr %48, align 8
  call void @col_append_str(ptr noundef %49, i32 noundef 25, ptr noundef @.str.34)
  %50 = load ptr, ptr %6, align 8
  %51 = call i32 @tvb_captured_length(ptr noundef %50)
  store i32 %51, ptr %5, align 4
  store i32 1, ptr %14, align 4
  br label %54

52:                                               ; preds = %4
  %53 = load i32, ptr %13, align 4
  store i32 %53, ptr %5, align 4
  store i32 1, ptr %14, align 4
  br label %54

54:                                               ; preds = %52, %46
  call void @llvm.lifetime.end.p0(i64 4, ptr %13) #3
  call void @llvm.lifetime.end.p0(i64 8, ptr %12) #3
  call void @llvm.lifetime.end.p0(i64 8, ptr %11) #3
  call void @llvm.lifetime.end.p0(i64 4, ptr %10) #3
  %55 = load i32, ptr %5, align 4
  ret i32 %55
}