; Function Attrs: null_pointer_is_valid sspstrong uwtable
define internal i32 @dissect_resp(ptr noundef %0, ptr noundef %1, ptr noundef %2, ptr readnone captures(none) %3) #0 {
  %5 = getelementptr inbounds nuw i8, ptr %1, i64 8
  %6 = load ptr, ptr %5, align 8
  tail call void @col_set_str(ptr noundef %6, i32 noundef 35, ptr noundef nonnull @.str.26)
  %7 = load ptr, ptr %5, align 8
  tail call void @col_clear(ptr noundef %7, i32 noundef 25)
  %8 = load ptr, ptr %5, align 8
  %9 = getelementptr inbounds nuw i8, ptr %1, i64 292
  %10 = load i32, ptr %9, align 4
  %11 = getelementptr inbounds nuw i8, ptr %1, i64 284
  %12 = load i32, ptr %11, align 4
  %13 = icmp eq i32 %10, %12
  %14 = select i1 %13, ptr @.str.32, ptr @.str.33
  tail call void @col_append_str(ptr noundef %8, i32 noundef 25, ptr noundef nonnull %14)
  %15 = load i32, ptr @proto_resp, align 4
  %16 = tail call ptr @proto_tree_add_item(ptr noundef %2, i32 noundef %15, ptr noundef %0, i32 noundef 0, i32 noundef -1, i32 noundef 0)
  %17 = load i32, ptr @ett_resp, align 4
  %18 = tail call ptr @proto_item_add_subtree(ptr noundef %16, i32 noundef %17)
  %19 = tail call fastcc i32 @dissect_resp_loop(ptr noundef %0, ptr noundef %1, ptr noundef %18, i32 noundef 0, i32 noundef 0, i64 noundef -1)
  %20 = icmp eq i32 %19, -1
  br i1 %20, label %21, label %24

21:                                               ; preds = %4
  %22 = load ptr, ptr %5, align 8
  tail call void @col_append_str(ptr noundef %22, i32 noundef 25, ptr noundef nonnull @.str.34)
  %23 = tail call i32 @tvb_captured_length(ptr noundef %0)
  br label %24

24:                                               ; preds = %4, %21
  %.0 = phi i32 [ %23, %21 ], [ %19, %4 ]
  ret i32 %.0
}